target datalayout = "e-m:e-p270:32:32-p271:32:32-p272:64:64-i64:64-i128:128-f80:128-n8:16:32:64-S128"
target triple = "x86_64-unknown-linux-gnu"

%"class.rocksdb::lru_cache::LRUHandleTable" = type { i32, %"class.std::unique_ptr", i32, i32, ptr }
%"class.std::unique_ptr" = type { %"struct.std::__uniq_ptr_data" }
%"struct.std::__uniq_ptr_data" = type { %"class.std::__uniq_ptr_impl" }
%"class.std::__uniq_ptr_impl" = type { %"class.std::tuple" }
%"class.std::tuple" = type { %"struct.std::_Tuple_impl" }
%"struct.std::_Tuple_impl" = type { %"struct.std::_Head_base.1" }
%"struct.std::_Head_base.1" = type { ptr }
%"struct.rocksdb::lru_cache::LRUHandle" = type { ptr, ptr, ptr, ptr, ptr, i64, i64, i32, i32, i8, i8, [1 x i8] }
%"class.rocksdb::lru_cache::LRUCacheShard" = type { %"class.rocksdb::CacheShardBase", i64, i64, i64, i8, double, double, double, double, %"struct.rocksdb::lru_cache::LRUHandle", ptr, ptr, %"class.rocksdb::lru_cache::LRUHandleTable", i64, i64, %"class.rocksdb::port::Mutex", ptr }
%"class.rocksdb::CacheShardBase" = type { i32 }
%"class.rocksdb::port::Mutex" = type { %union.pthread_mutex_t }
%union.pthread_mutex_t = type { %struct.__pthread_mutex_s }
%struct.__pthread_mutex_s = type { i32, i32, i32, i32, i32, i16, i16, %struct.__pthread_internal_list }
%struct.__pthread_internal_list = type { ptr, ptr }

; Function Attrs: mustprogress nounwind uwtable
define linkonce_odr noundef zeroext i1 @_ZNK7rocksdb9lru_cache9LRUHandle12InLowPriPoolEv(ptr noundef nonnull align 8 dereferenceable(72) %this) #4 comdat align 2 {
entry:
  %this.addr = alloca ptr, align 8
  store ptr %this, ptr %this.addr, align 8
  %this1 = load ptr, ptr %this.addr, align 8
  %m_flags = getelementptr inbounds %"struct.rocksdb::lru_cache::LRUHandle", ptr %this1, i32 0, i32 9
  %0 = load i8, ptr %m_flags, align 8
  %conv = zext i8 %0 to i32
  %and = and i32 %conv, 8
  %tobool = icmp ne i32 %and, 0
  ret i1 %tobool
}

; Function Attrs: mustprogress nounwind uwtable
define linkonce_odr noundef zeroext i1 @_ZNK7rocksdb9lru_cache9LRUHandle13InHighPriPoolEv(ptr noundef nonnull align 8 dereferenceable(72) %this) #4 comdat align 2 {
entry:
  %this.addr = alloca ptr, align 8
  store ptr %this, ptr %this.addr, align 8
  %this1 = load ptr, ptr %this.addr, align 8
  %m_flags = getelementptr inbounds %"struct.rocksdb::lru_cache::LRUHandle", ptr %this1, i32 0, i32 9
  %0 = load i8, ptr %m_flags, align 8
  %conv = zext i8 %0 to i32
  %and = and i32 %conv, 4
  %tobool = icmp ne i32 %and, 0
  ret i1 %tobool
}

; Function Attrs: mustprogress uwtable
define void @_ZN7rocksdb9lru_cache13LRUCacheShard10LRU_RemoveEPNS0_9LRUHandleE(ptr noundef nonnull align 64 dereferenceable(256) %this, ptr noundef %e) #0 align 2 {
entry:
  %this.addr = alloca ptr, align 8
  %e.addr = alloca ptr, align 8
  store ptr %this, ptr %this.addr, align 8
  store ptr %e, ptr %e.addr, align 8
  %this1 = load ptr, ptr %this.addr, align 8
  %lru_low_pri_ = getelementptr inbounds %"class.rocksdb::lru_cache::LRUCacheShard", ptr %this1, i32 0, i32 10
  %0 = load ptr, ptr %lru_low_pri_, align 16
  %1 = load ptr, ptr %e.addr, align 8
  %cmp = icmp eq ptr %0, %1
  br i1 %cmp, label %if.then, label %if.end

if.then:                                          ; preds = %entry
  %2 = load ptr, ptr %e.addr, align 8
  %prev = getelementptr inbounds %"struct.rocksdb::lru_cache::LRUHandle", ptr %2, i32 0, i32 4
  %3 = load ptr, ptr %prev, align 8
  %lru_low_pri_2 = getelementptr inbounds %"class.rocksdb::lru_cache::LRUCacheShard", ptr %this1, i32 0, i32 10
  store ptr %3, ptr %lru_low_pri_2, align 16
  br label %if.end

if.end:                                           ; preds = %if.then, %entry
  %lru_bottom_pri_ = getelementptr inbounds %"class.rocksdb::lru_cache::LRUCacheShard", ptr %this1, i32 0, i32 11
  %4 = load ptr, ptr %lru_bottom_pri_, align 8
  %5 = load ptr, ptr %e.addr, align 8
  %cmp3 = icmp eq ptr %4, %5
  br i1 %cmp3, label %if.then4, label %if.end7

if.then4:                                         ; preds = %if.end
  %6 = load ptr, ptr %e.addr, align 8
  %prev5 = getelementptr inbounds %"struct.rocksdb::lru_cache::LRUHandle", ptr %6, i32 0, i32 4
  %7 = load ptr, ptr %prev5, align 8
  %lru_bottom_pri_6 = getelementptr inbounds %"class.rocksdb::lru_cache::LRUCacheShard", ptr %this1, i32 0, i32 11
  store ptr %7, ptr %lru_bottom_pri_6, align 8
  br label %if.end7

if.end7:                                          ; preds = %if.then4, %if.end
  %8 = load ptr, ptr %e.addr, align 8
  %prev8 = getelementptr inbounds %"struct.rocksdb::lru_cache::LRUHandle", ptr %8, i32 0, i32 4
  %9 = load ptr, ptr %prev8, align 8
  %10 = load ptr, ptr %e.addr, align 8
  %next = getelementptr inbounds %"struct.rocksdb::lru_cache::LRUHandle", ptr %10, i32 0, i32 3
  %11 = load ptr, ptr %next, align 8
  %prev9 = getelementptr inbounds %"struct.rocksdb::lru_cache::LRUHandle", ptr %11, i32 0, i32 4
  store ptr %9, ptr %prev9, align 8
  %12 = load ptr, ptr %e.addr, align 8
  %next10 = getelementptr inbounds %"struct.rocksdb::lru_cache::LRUHandle", ptr %12, i32 0, i32 3
  %13 = load ptr, ptr %next10, align 8
  %14 = load ptr, ptr %e.addr, align 8
  %prev11 = getelementptr inbounds %"struct.rocksdb::lru_cache::LRUHandle", ptr %14, i32 0, i32 4
  %15 = load ptr, ptr %prev11, align 8
  %next12 = getelementptr inbounds %"struct.rocksdb::lru_cache::LRUHandle", ptr %15, i32 0, i32 3
  store ptr %13, ptr %next12, align 8
  %16 = load ptr, ptr %e.addr, align 8
  %next13 = getelementptr inbounds %"struct.rocksdb::lru_cache::LRUHandle", ptr %16, i32 0, i32 3
  store ptr null, ptr %next13, align 8
  %17 = load ptr, ptr %e.addr, align 8
  %prev14 = getelementptr inbounds %"struct.rocksdb::lru_cache::LRUHandle", ptr %17, i32 0, i32 4
  store ptr null, ptr %prev14, align 8
  %18 = load ptr, ptr %e.addr, align 8
  %total_charge = getelementptr inbounds %"struct.rocksdb::lru_cache::LRUHandle", ptr %18, i32 0, i32 5
  %19 = load i64, ptr %total_charge, align 8
  %lru_usage_ = getelementptr inbounds %"class.rocksdb::lru_cache::LRUCacheShard", ptr %this1, i32 0, i32 14
  %20 = load i64, ptr %lru_usage_, align 8
  %sub = sub i64 %20, %19
  store i64 %sub, ptr %lru_usage_, align 8
  %21 = load ptr, ptr %e.addr, align 8
  %call = call noundef zeroext i1 @_ZNK7rocksdb9lru_cache9LRUHandle13InHighPriPoolEv(ptr noundef nonnull align 8 dereferenceable(72) %21)
  br i1 %call, label %if.then15, label %if.else

if.then15:                                        ; preds = %if.end7
  %22 = load ptr, ptr %e.addr, align 8
  %total_charge16 = getelementptr inbounds %"struct.rocksdb::lru_cache::LRUHandle", ptr %22, i32 0, i32 5
  %23 = load i64, ptr %total_charge16, align 8
  %high_pri_pool_usage_ = getelementptr inbounds %"class.rocksdb::lru_cache::LRUCacheShard", ptr %this1, i32 0, i32 2
  %24 = load i64, ptr %high_pri_pool_usage_, align 16
  %sub17 = sub i64 %24, %23
  store i64 %sub17, ptr %high_pri_pool_usage_, align 16
  br label %if.end23

if.else:                                          ; preds = %if.end7
  %25 = load ptr, ptr %e.addr, align 8
  %call18 = call noundef zeroext i1 @_ZNK7rocksdb9lru_cache9LRUHandle12InLowPriPoolEv(ptr noundef nonnull align 8 dereferenceable(72) %25)
  br i1 %call18, label %if.then19, label %if.end22

if.then19:                                        ; preds = %if.else
  %26 = load ptr, ptr %e.addr, align 8
  %total_charge20 = getelementptr inbounds %"struct.rocksdb::lru_cache::LRUHandle", ptr %26, i32 0, i32 5
  %27 = load i64, ptr %total_charge20, align 8
  %low_pri_pool_usage_ = getelementptr inbounds %"class.rocksdb::lru_cache::LRUCacheShard", ptr %this1, i32 0, i32 3
  %28 = load i64, ptr %low_pri_pool_usage_, align 8
  %sub21 = sub i64 %28, %27
  store i64 %sub21, ptr %low_pri_pool_usage_, align 8
  br label %if.end22

if.end22:                                         ; preds = %if.then19, %if.else
  br label %if.end23

if.end23:                                         ; preds = %if.end22, %if.then15
  ret void
}