; Function Attrs: mustprogress nofree norecurse nosync nounwind willreturn memory(write, argmem: readwrite, inaccessiblemem: none) uwtable
define void @_ZN7rocksdb9lru_cache13LRUCacheShard10LRU_RemoveEPNS0_9LRUHandleE(ptr nocapture noundef nonnull align 64 dereferenceable(256) %this, ptr noundef %e) local_unnamed_addr #9 align 2 {
entry:
  %lru_low_pri_ = getelementptr inbounds i8, ptr %this, i64 144
  %0 = load ptr, ptr %lru_low_pri_, align 16
  %cmp = icmp eq ptr %0, %e
  br i1 %cmp, label %if.then, label %if.end

if.then:                                          ; preds = %entry
  %prev = getelementptr inbounds i8, ptr %e, i64 32
  %1 = load ptr, ptr %prev, align 8
  store ptr %1, ptr %lru_low_pri_, align 16
  br label %if.end

if.end:                                           ; preds = %if.then, %entry
  %lru_bottom_pri_ = getelementptr inbounds i8, ptr %this, i64 152
  %2 = load ptr, ptr %lru_bottom_pri_, align 8
  %cmp3 = icmp eq ptr %2, %e
  %prev5 = getelementptr inbounds i8, ptr %e, i64 32
  %3 = load ptr, ptr %prev5, align 8
  br i1 %cmp3, label %if.then4, label %if.end7

if.then4:                                         ; preds = %if.end
  store ptr %3, ptr %lru_bottom_pri_, align 8
  br label %if.end7

if.end7:                                          ; preds = %if.end, %if.then4
  %prev8 = getelementptr inbounds i8, ptr %e, i64 32
  %next = getelementptr inbounds i8, ptr %e, i64 24
  %4 = load ptr, ptr %next, align 8
  %prev9 = getelementptr inbounds i8, ptr %4, i64 32
  store ptr %3, ptr %prev9, align 8
  %5 = load ptr, ptr %next, align 8
  %6 = load ptr, ptr %prev8, align 8
  %next12 = getelementptr inbounds i8, ptr %6, i64 24
  store ptr %5, ptr %next12, align 8
  %total_charge = getelementptr inbounds i8, ptr %e, i64 40
  tail call void @llvm.memset.p0.i64(ptr noundef nonnull align 8 dereferenceable(16) %next, i8 0, i64 16, i1 false)
  %7 = load i64, ptr %total_charge, align 8
  %lru_usage_ = getelementptr inbounds i8, ptr %this, i64 200
  %8 = load i64, ptr %lru_usage_, align 8
  %sub = sub i64 %8, %7
  store i64 %sub, ptr %lru_usage_, align 8
  %m_flags.i = getelementptr inbounds i8, ptr %e, i64 64
  %9 = load i8, ptr %m_flags.i, align 8
  %10 = and i8 %9, 4
  %tobool.i.not = icmp eq i8 %10, 0
  br i1 %tobool.i.not, label %if.else, label %if.then15

if.then15:                                        ; preds = %if.end7
  %11 = load i64, ptr %total_charge, align 8
  %high_pri_pool_usage_ = getelementptr inbounds i8, ptr %this, i64 16
  %12 = load i64, ptr %high_pri_pool_usage_, align 16
  %sub17 = sub i64 %12, %11
  store i64 %sub17, ptr %high_pri_pool_usage_, align 16
  br label %if.end23

if.else:                                          ; preds = %if.end7
  %13 = and i8 %9, 8
  %tobool.i16.not = icmp eq i8 %13, 0
  br i1 %tobool.i16.not, label %if.end23, label %if.then19

if.then19:                                        ; preds = %if.else
  %14 = load i64, ptr %total_charge, align 8
  %low_pri_pool_usage_ = getelementptr inbounds i8, ptr %this, i64 24
  %15 = load i64, ptr %low_pri_pool_usage_, align 8
  %sub21 = sub i64 %15, %14
  store i64 %sub21, ptr %low_pri_pool_usage_, align 8
  br label %if.end23

if.end23:                                         ; preds = %if.else, %if.then19, %if.then15
  ret void
}